; Function Attrs: mustprogress uwtable
define hidden void @hb_map_set(ptr noundef nonnull %0, i32 noundef %1, i32 noundef %2) local_unnamed_addr #3 {
  %4 = alloca i32, align 4
  %5 = alloca i32, align 4
  store i32 %1, ptr %4, align 4
  store i32 %2, ptr %5, align 4
  %6 = mul i32 %1, -1640531535
  %7 = call noundef zeroext i1 @_ZN12hb_hashmap_tIjjLb1EE13set_with_hashIRKjRjEEbOT_jOT0_b(ptr noundef nonnull align 8 dereferenceable(48) %0, ptr noundef nonnull align 4 dereferenceable(4) %4, i32 noundef %6, ptr noundef nonnull align 4 dereferenceable(4) %5, i1 noundef zeroext true)
  ret void
}